; Function Attrs: nounwind uwtable
define internal fastcc void @dissect_fcfcs_gmal(ptr noundef %0, ptr noundef %1, i32 noundef range(i32 0, 2) %2) unnamed_addr #0 {
  %4 = alloca i32, align 4
  %.not = icmp eq ptr %1, null
  br i1 %.not, label %.loopexit, label %5

5:                                                ; preds = %3
  %.not16 = icmp eq i32 %2, 0
  br i1 %.not16, label %9, label %6

6:                                                ; preds = %5
  %7 = load i32, ptr @hf_fcs_iename, align 4
  %8 = tail call ptr @proto_tree_add_item(ptr noundef nonnull %1, i32 noundef %7, ptr noundef %0, i32 noundef 16, i32 noundef 8, i32 noundef 0) #4
  br label %.loopexit

9:                                                ; preds = %5
  %10 = load i32, ptr @hf_fcfcs_num_mgmt_addresses, align 4
  %11 = call ptr @proto_tree_add_item_ret_uint(ptr noundef nonnull %1, i32 noundef %10, ptr noundef %0, i32 noundef 16, i32 noundef 4, i32 noundef 0, ptr noundef nonnull %4) #4
  %12 = load i32, ptr %4, align 4
  %.not19 = icmp eq i32 %12, 0
  br i1 %.not19, label %.loopexit, label %.lr.ph

.lr.ph:                                           ; preds = %9, %.lr.ph
  %.018 = phi i32 [ %16, %.lr.ph ], [ 0, %9 ]
  %.01417 = phi i32 [ %15, %.lr.ph ], [ 20, %9 ]
  %13 = load i32, ptr @hf_fcs_mgmtaddr, align 4
  %14 = call ptr @proto_tree_add_item(ptr noundef nonnull %1, i32 noundef %13, ptr noundef %0, i32 noundef %.01417, i32 noundef 1, i32 noundef 0) #4
  %15 = add i32 %.01417, 256
  %16 = add nuw i32 %.018, 1
  %17 = load i32, ptr %4, align 4
  %18 = icmp ult i32 %16, %17
  br i1 %18, label %.lr.ph, label %.loopexit, !llvm.loop !6

.loopexit:                                        ; preds = %.lr.ph, %9, %6, %3
  ret void
}